target datalayout = "e-m:e-p270:32:32-p271:32:32-p272:64:64-i64:64-i128:128-f80:128-n8:16:32:64-S128"
target triple = "x86_64-pc-linux-gnu"

%struct._zend_executor_globals = type { %struct._zval_struct, %struct._zval_struct, [32 x ptr], ptr, ptr, %struct._zend_array, %struct._zend_array, ptr, i32, i8, %struct._zval_struct, i32, ptr, ptr, ptr, ptr, ptr, ptr, i64, ptr, ptr, i32, ptr, i32, i64, i32, i32, i32, i8, i8, %struct.zend_atomic_bool_s, %struct.zend_atomic_bool_s, ptr, i64, ptr, ptr, %struct._zend_array, %struct._zend_array, i32, i8, %struct._zval_struct, %struct._zval_struct, %struct._zend_stack, %struct._zend_stack, %struct._zend_stack, ptr, i32, i32, i64, ptr, ptr, ptr, %struct._zend_objects_store, %struct._zend_lazy_objects_store, ptr, ptr, ptr, [3 x %struct._zend_op], ptr, i8, i8, i64, i32, i32, ptr, [16 x %struct._HashTableIterator], ptr, %union._zend_function, %struct._zend_op, %struct._zend_array, i64, %struct.zend_get_gc_buffer, ptr, ptr, ptr, i64, i8, i32, ptr, ptr, i64, %struct._zend_call_stack, i64, i64, %struct._zend_strtod_state, [6 x ptr] }
%struct.zend_atomic_bool_s = type { i8 }
%struct._zval_struct = type { %union._zend_value, %union.anon, %union.anon.2 }
%union._zend_value = type { i64 }
%union.anon = type { i32 }
%union.anon.2 = type { i32 }
%struct._zend_stack = type { i32, i32, i32, ptr }
%struct._zend_objects_store = type { ptr, i32, i32, i32 }
%struct._zend_lazy_objects_store = type { %struct._zend_array }
%struct._HashTableIterator = type { ptr, i32, i32 }
%union._zend_function = type { %struct._zend_op_array }
%struct._zend_op_array = type { i8, [3 x i8], i32, ptr, ptr, ptr, i32, i32, ptr, ptr, ptr, ptr, i32, ptr, i32, i32, i32, ptr, ptr, ptr, ptr, ptr, i32, i32, ptr, ptr, ptr, i32, i32, i32, i32, ptr, ptr, [6 x ptr] }
%struct._zend_op = type { ptr, %union._znode_op, %union._znode_op, %union._znode_op, i32, i32, i8, i8, i8, i8 }
%union._znode_op = type { i32 }
%struct._zend_array = type { %struct._zend_refcounted_h, %union.anon.4, i32, %union.anon.6, i32, i32, i32, i32, i64, ptr }
%struct._zend_refcounted_h = type { i32, %union.anon.3 }
%union.anon.3 = type { i32 }
%union.anon.4 = type { i32 }
%union.anon.6 = type { ptr }
%struct.zend_get_gc_buffer = type { ptr, ptr, ptr }
%struct._zend_call_stack = type { ptr, i64 }
%struct._zend_strtod_state = type { [8 x ptr], ptr, ptr }
%struct._zend_string = type { %struct._zend_refcounted_h, i64, i64, [1 x i8] }
%struct._zend_execute_data = type { ptr, ptr, ptr, ptr, %struct._zval_struct, ptr, ptr, ptr, ptr }

@executor_globals = external global %struct._zend_executor_globals, align 8
@.str.11 = private unnamed_addr constant [71 x i8] c"Encoding parameter exceeds the maximum allowed length of %d characters\00", align 1
@.str.24 = private unnamed_addr constant [4 x i8] c"ssS\00", align 1

; Function Attrs: alwaysinline nounwind uwtable
define internal void @zend_string_efree(ptr noundef %0) #4 {
  %2 = alloca ptr, align 8
  store ptr %0, ptr %2, align 8, !tbaa !28
  %3 = load ptr, ptr %2, align 8, !tbaa !28
  call void @_efree(ptr noundef %3)
  ret void
}

; Function Attrs: nounwind uwtable
define hidden void @zif_iconv(ptr noundef %0, ptr noundef %1) #0 {
  %3 = alloca ptr, align 8
  %4 = alloca ptr, align 8
  %5 = alloca ptr, align 8
  %6 = alloca ptr, align 8
  %7 = alloca ptr, align 8
  %8 = alloca i64, align 8
  %9 = alloca i64, align 8
  %10 = alloca i32, align 4
  %11 = alloca ptr, align 8
  %12 = alloca i32, align 4
  %13 = alloca ptr, align 8
  %14 = alloca ptr, align 8
  store ptr %0, ptr %3, align 8, !tbaa !39
  store ptr %1, ptr %4, align 8, !tbaa !11
  call void @llvm.lifetime.start.p0(i64 8, ptr %5) #15
  call void @llvm.lifetime.start.p0(i64 8, ptr %6) #15
  call void @llvm.lifetime.start.p0(i64 8, ptr %7) #15
  call void @llvm.lifetime.start.p0(i64 8, ptr %8) #15
  store i64 0, ptr %8, align 8, !tbaa !24
  call void @llvm.lifetime.start.p0(i64 8, ptr %9) #15
  store i64 0, ptr %9, align 8, !tbaa !24
  call void @llvm.lifetime.start.p0(i64 4, ptr %10) #15
  call void @llvm.lifetime.start.p0(i64 8, ptr %11) #15
  %15 = load ptr, ptr %3, align 8, !tbaa !39
  %16 = getelementptr inbounds nuw %struct._zend_execute_data, ptr %15, i32 0, i32 4
  %17 = getelementptr inbounds nuw %struct._zval_struct, ptr %16, i32 0, i32 2
  %18 = load i32, ptr %17, align 4, !tbaa !13
  %19 = call i32 (i32, ptr, ...) @zend_parse_parameters(i32 noundef %18, ptr noundef @.str.24, ptr noundef %5, ptr noundef %8, ptr noundef %6, ptr noundef %9, ptr noundef %7)
  %20 = icmp eq i32 %19, -1
  br i1 %20, label %21, label %27

21:                                               ; preds = %2
  br label %22

22:                                               ; preds = %21
  %23 = load ptr, ptr getelementptr inbounds nuw (%struct._zend_executor_globals, ptr @executor_globals, i32 0, i32 54), align 8, !tbaa !41
  %24 = icmp ne ptr %23, null
  call void @llvm.assume(i1 %24)
  store i32 1, ptr %12, align 4
  br label %86

25:                                               ; No predecessors!
  br label %26

26:                                               ; preds = %25
  br label %27

27:                                               ; preds = %26, %2
  %28 = load i64, ptr %8, align 8, !tbaa !24
  %29 = icmp uge i64 %28, 64
  br i1 %29, label %33, label %30

30:                                               ; preds = %27
  %31 = load i64, ptr %9, align 8, !tbaa !24
  %32 = icmp uge i64 %31, 64
  br i1 %32, label %33, label %42

33:                                               ; preds = %30, %27
  call void (ptr, i32, ptr, ...) @php_error_docref(ptr noundef null, i32 noundef 2, ptr noundef @.str.11, i32 noundef 64)
  br label %34

34:                                               ; preds = %33
  br label %35

35:                                               ; preds = %34
  %36 = load ptr, ptr %4, align 8, !tbaa !11
  %37 = getelementptr inbounds nuw %struct._zval_struct, ptr %36, i32 0, i32 1
  store i32 2, ptr %37, align 8, !tbaa !13
  br label %38

38:                                               ; preds = %35
  br label %39

39:                                               ; preds = %38
  store i32 1, ptr %12, align 4
  br label %86

40:                                               ; No predecessors!
  br label %41

41:                                               ; preds = %40
  br label %42

42:                                               ; preds = %41, %30
  %43 = load ptr, ptr %7, align 8, !tbaa !28
  %44 = getelementptr inbounds nuw %struct._zend_string, ptr %43, i32 0, i32 3
  %45 = getelementptr inbounds [1 x i8], ptr %44, i64 0, i64 0
  %46 = load ptr, ptr %7, align 8, !tbaa !28
  %47 = getelementptr inbounds nuw %struct._zend_string, ptr %46, i32 0, i32 2
  %48 = load i64, ptr %47, align 8, !tbaa !31
  %49 = load ptr, ptr %6, align 8, !tbaa !23
  %50 = load ptr, ptr %5, align 8, !tbaa !23
  %51 = call i32 @php_iconv_string(ptr noundef %45, i64 noundef %48, ptr noundef %11, ptr noundef %49, ptr noundef %50)
  store i32 %51, ptr %10, align 4, !tbaa !4
  %52 = load i32, ptr %10, align 4, !tbaa !4
  %53 = load ptr, ptr %6, align 8, !tbaa !23
  %54 = load ptr, ptr %5, align 8, !tbaa !23
  call void @_php_iconv_show_error(i32 noundef %52, ptr noundef %53, ptr noundef %54)
  %55 = load i32, ptr %10, align 4, !tbaa !4
  %56 = icmp eq i32 %55, 0
  br i1 %56, label %57, label %71

57:                                               ; preds = %42
  %58 = load ptr, ptr %11, align 8, !tbaa !28
  %59 = icmp ne ptr %58, null
  br i1 %59, label %60, label %71

60:                                               ; preds = %57
  br label %61

61:                                               ; preds = %60
  call void @llvm.lifetime.start.p0(i64 8, ptr %13) #15
  %62 = load ptr, ptr %4, align 8, !tbaa !11
  store ptr %62, ptr %13, align 8, !tbaa !11
  call void @llvm.lifetime.start.p0(i64 8, ptr %14) #15
  %63 = load ptr, ptr %11, align 8, !tbaa !28
  store ptr %63, ptr %14, align 8, !tbaa !28
  %64 = load ptr, ptr %14, align 8, !tbaa !28
  %65 = load ptr, ptr %13, align 8, !tbaa !11
  %66 = getelementptr inbounds nuw %struct._zval_struct, ptr %65, i32 0, i32 0
  store ptr %64, ptr %66, align 8, !tbaa !13
  %67 = load ptr, ptr %13, align 8, !tbaa !11
  %68 = getelementptr inbounds nuw %struct._zval_struct, ptr %67, i32 0, i32 1
  store i32 262, ptr %68, align 8, !tbaa !13
  call void @llvm.lifetime.end.p0(i64 8, ptr %14) #15
  call void @llvm.lifetime.end.p0(i64 8, ptr %13) #15
  br label %69

69:                                               ; preds = %61
  br label %70

70:                                               ; preds = %69
  br label %85

71:                                               ; preds = %57, %42
  %72 = load ptr, ptr %11, align 8, !tbaa !28
  %73 = icmp ne ptr %72, null
  br i1 %73, label %74, label %76

74:                                               ; preds = %71
  %75 = load ptr, ptr %11, align 8, !tbaa !28
  call void @zend_string_efree(ptr noundef %75)
  br label %76

76:                                               ; preds = %74, %71
  br label %77

77:                                               ; preds = %76
  br label %78

78:                                               ; preds = %77
  %79 = load ptr, ptr %4, align 8, !tbaa !11
  %80 = getelementptr inbounds nuw %struct._zval_struct, ptr %79, i32 0, i32 1
  store i32 2, ptr %80, align 8, !tbaa !13
  br label %81

81:                                               ; preds = %78
  br label %82

82:                                               ; preds = %81
  store i32 1, ptr %12, align 4
  br label %86

83:                                               ; No predecessors!
  br label %84

84:                                               ; preds = %83
  br label %85

85:                                               ; preds = %84, %70
  store i32 0, ptr %12, align 4
  br label %86

86:                                               ; preds = %85, %82, %39, %22
  call void @llvm.lifetime.end.p0(i64 8, ptr %11) #15
  call void @llvm.lifetime.end.p0(i64 4, ptr %10) #15
  call void @llvm.lifetime.end.p0(i64 8, ptr %9) #15
  call void @llvm.lifetime.end.p0(i64 8, ptr %8) #15
  call void @llvm.lifetime.end.p0(i64 8, ptr %7) #15
  call void @llvm.lifetime.end.p0(i64 8, ptr %6) #15
  call void @llvm.lifetime.end.p0(i64 8, ptr %5) #15
  %87 = load i32, ptr %12, align 4
  switch i32 %87, label %89 [
    i32 0, label %88
    i32 1, label %88
  ]

88:                                               ; preds = %86, %86
  ret void

89:                                               ; preds = %86
  unreachable
}