; Function Attrs: nounwind uwtable
define hidden void @zif_iconv(ptr noundef readonly captures(none) %0, ptr noundef writeonly captures(none) %1) #0 {
  %3 = alloca ptr, align 8
  %4 = alloca ptr, align 8
  %5 = alloca ptr, align 8
  %6 = alloca i64, align 8
  %7 = alloca i64, align 8
  %8 = alloca ptr, align 8
  call void @llvm.lifetime.start.p0(i64 8, ptr nonnull %3) #16
  call void @llvm.lifetime.start.p0(i64 8, ptr nonnull %4) #16
  call void @llvm.lifetime.start.p0(i64 8, ptr nonnull %5) #16
  call void @llvm.lifetime.start.p0(i64 8, ptr nonnull %6) #16
  store i64 0, ptr %6, align 8, !tbaa !14
  call void @llvm.lifetime.start.p0(i64 8, ptr nonnull %7) #16
  store i64 0, ptr %7, align 8, !tbaa !14
  call void @llvm.lifetime.start.p0(i64 8, ptr nonnull %8) #16
  %9 = getelementptr inbounds nuw i8, ptr %0, i64 44
  %10 = load i32, ptr %9, align 4, !tbaa !4
  %11 = call i32 (i32, ptr, ...) @zend_parse_parameters(i32 noundef %10, ptr noundef nonnull @.str.24, ptr noundef nonnull %3, ptr noundef nonnull %6, ptr noundef nonnull %4, ptr noundef nonnull %7, ptr noundef nonnull %5) #16
  %12 = icmp eq i32 %11, -1
  br i1 %12, label %13, label %16

13:                                               ; preds = %2
  %14 = load ptr, ptr getelementptr inbounds nuw (i8, ptr @executor_globals, i64 960), align 8, !tbaa !22
  %15 = icmp ne ptr %14, null
  call void @llvm.assume(i1 %15)
  br label %42

16:                                               ; preds = %2
  %17 = load i64, ptr %6, align 8, !tbaa !14
  %18 = icmp ugt i64 %17, 63
  %19 = load i64, ptr %7, align 8
  %20 = icmp ugt i64 %19, 63
  %or.cond = select i1 %18, i1 true, i1 %20
  br i1 %or.cond, label %21, label %23

21:                                               ; preds = %16
  call void (ptr, i32, ptr, ...) @php_error_docref(ptr noundef null, i32 noundef 2, ptr noundef nonnull @.str.11, i32 noundef 64) #16
  %22 = getelementptr inbounds nuw i8, ptr %1, i64 8
  store i32 2, ptr %22, align 8, !tbaa !4
  br label %42

23:                                               ; preds = %16
  %24 = load ptr, ptr %5, align 8, !tbaa !10
  %25 = getelementptr inbounds nuw i8, ptr %24, i64 24
  %26 = getelementptr inbounds nuw i8, ptr %24, i64 16
  %27 = load i64, ptr %26, align 8, !tbaa !20
  %28 = load ptr, ptr %4, align 8, !tbaa !7
  %29 = load ptr, ptr %3, align 8, !tbaa !7
  %30 = call i32 @php_iconv_string(ptr noundef nonnull %25, i64 noundef %27, ptr noundef nonnull %8, ptr noundef %28, ptr noundef %29)
  %31 = load ptr, ptr %4, align 8, !tbaa !7
  %32 = load ptr, ptr %3, align 8, !tbaa !7
  call fastcc void @_php_iconv_show_error(i32 noundef %30, ptr noundef %31, ptr noundef %32)
  %33 = icmp eq i32 %30, 0
  %34 = load ptr, ptr %8, align 8
  %35 = icmp ne ptr %34, null
  %or.cond3 = select i1 %33, i1 %35, i1 false
  br i1 %or.cond3, label %36, label %38

36:                                               ; preds = %23
  store ptr %34, ptr %1, align 8, !tbaa !4
  %37 = getelementptr inbounds nuw i8, ptr %1, i64 8
  store i32 262, ptr %37, align 8, !tbaa !4
  br label %42

38:                                               ; preds = %23
  br i1 %35, label %39, label %40

39:                                               ; preds = %38
  call void @_efree(ptr noundef nonnull %34) #16
  br label %40

40:                                               ; preds = %39, %38
  %41 = getelementptr inbounds nuw i8, ptr %1, i64 8
  store i32 2, ptr %41, align 8, !tbaa !4
  br label %42

42:                                               ; preds = %36, %40, %21, %13
  call void @llvm.lifetime.end.p0(i64 8, ptr nonnull %8) #16
  call void @llvm.lifetime.end.p0(i64 8, ptr nonnull %7) #16
  call void @llvm.lifetime.end.p0(i64 8, ptr nonnull %6) #16
  call void @llvm.lifetime.end.p0(i64 8, ptr nonnull %5) #16
  call void @llvm.lifetime.end.p0(i64 8, ptr nonnull %4) #16
  call void @llvm.lifetime.end.p0(i64 8, ptr nonnull %3) #16
  ret void
}